target datalayout = "e-m:e-p270:32:32-p271:32:32-p272:64:64-i64:64-i128:128-f80:128-n8:16:32:64-S128"
target triple = "x86_64-pc-linux-gnu"

%struct.NSVGparser = type { [128 x %struct.NSVGattrib], i32, ptr, i32, i32, ptr, ptr, ptr, ptr, float, float, float, float, i32, i32, i32, float, i8, i8 }
%struct.NSVGattrib = type { [64 x i8], [6 x float], i32, i32, float, float, float, [64 x i8], [64 x i8], float, float, [8 x float], i32, i8, i8, float, i8, float, i32, float, float, i8, i8, i8 }

; Function Attrs: nounwind uwtable
define internal void @nsvg__addPoint(ptr noundef %0, float noundef %1, float noundef %2) #0 {
  %4 = alloca ptr, align 8
  %5 = alloca float, align 4
  %6 = alloca float, align 4
  store ptr %0, ptr %4, align 8, !tbaa !27
  store float %1, ptr %5, align 4, !tbaa !23
  store float %2, ptr %6, align 4, !tbaa !23
  %7 = load ptr, ptr %4, align 8, !tbaa !27
  %8 = getelementptr inbounds nuw %struct.NSVGparser, ptr %7, i32 0, i32 3
  %9 = load i32, ptr %8, align 8, !tbaa !219
  %10 = add nsw i32 %9, 1
  %11 = load ptr, ptr %4, align 8, !tbaa !27
  %12 = getelementptr inbounds nuw %struct.NSVGparser, ptr %11, i32 0, i32 4
  %13 = load i32, ptr %12, align 4, !tbaa !282
  %14 = icmp sgt i32 %10, %13
  br i1 %14, label %15, label %48

15:                                               ; preds = %3
  %16 = load ptr, ptr %4, align 8, !tbaa !27
  %17 = getelementptr inbounds nuw %struct.NSVGparser, ptr %16, i32 0, i32 4
  %18 = load i32, ptr %17, align 4, !tbaa !282
  %19 = icmp ne i32 %18, 0
  br i1 %19, label %20, label %25

20:                                               ; preds = %15
  %21 = load ptr, ptr %4, align 8, !tbaa !27
  %22 = getelementptr inbounds nuw %struct.NSVGparser, ptr %21, i32 0, i32 4
  %23 = load i32, ptr %22, align 4, !tbaa !282
  %24 = mul nsw i32 %23, 2
  br label %26

25:                                               ; preds = %15
  br label %26

26:                                               ; preds = %25, %20
  %27 = phi i32 [ %24, %20 ], [ 8, %25 ]
  %28 = load ptr, ptr %4, align 8, !tbaa !27
  %29 = getelementptr inbounds nuw %struct.NSVGparser, ptr %28, i32 0, i32 4
  store i32 %27, ptr %29, align 4, !tbaa !282
  %30 = load ptr, ptr %4, align 8, !tbaa !27
  %31 = getelementptr inbounds nuw %struct.NSVGparser, ptr %30, i32 0, i32 2
  %32 = load ptr, ptr %31, align 8, !tbaa !88
  %33 = load ptr, ptr %4, align 8, !tbaa !27
  %34 = getelementptr inbounds nuw %struct.NSVGparser, ptr %33, i32 0, i32 4
  %35 = load i32, ptr %34, align 4, !tbaa !282
  %36 = mul nsw i32 %35, 2
  %37 = sext i32 %36 to i64
  %38 = mul i64 %37, 4
  %39 = call ptr @realloc(ptr noundef %32, i64 noundef %38) #14
  %40 = load ptr, ptr %4, align 8, !tbaa !27
  %41 = getelementptr inbounds nuw %struct.NSVGparser, ptr %40, i32 0, i32 2
  store ptr %39, ptr %41, align 8, !tbaa !88
  %42 = load ptr, ptr %4, align 8, !tbaa !27
  %43 = getelementptr inbounds nuw %struct.NSVGparser, ptr %42, i32 0, i32 2
  %44 = load ptr, ptr %43, align 8, !tbaa !88
  %45 = icmp ne ptr %44, null
  br i1 %45, label %47, label %46

46:                                               ; preds = %26
  br label %75

47:                                               ; preds = %26
  br label %48

48:                                               ; preds = %47, %3
  %49 = load float, ptr %5, align 4, !tbaa !23
  %50 = load ptr, ptr %4, align 8, !tbaa !27
  %51 = getelementptr inbounds nuw %struct.NSVGparser, ptr %50, i32 0, i32 2
  %52 = load ptr, ptr %51, align 8, !tbaa !88
  %53 = load ptr, ptr %4, align 8, !tbaa !27
  %54 = getelementptr inbounds nuw %struct.NSVGparser, ptr %53, i32 0, i32 3
  %55 = load i32, ptr %54, align 8, !tbaa !219
  %56 = mul nsw i32 %55, 2
  %57 = add nsw i32 %56, 0
  %58 = sext i32 %57 to i64
  %59 = getelementptr inbounds float, ptr %52, i64 %58
  store float %49, ptr %59, align 4, !tbaa !23
  %60 = load float, ptr %6, align 4, !tbaa !23
  %61 = load ptr, ptr %4, align 8, !tbaa !27
  %62 = getelementptr inbounds nuw %struct.NSVGparser, ptr %61, i32 0, i32 2
  %63 = load ptr, ptr %62, align 8, !tbaa !88
  %64 = load ptr, ptr %4, align 8, !tbaa !27
  %65 = getelementptr inbounds nuw %struct.NSVGparser, ptr %64, i32 0, i32 3
  %66 = load i32, ptr %65, align 8, !tbaa !219
  %67 = mul nsw i32 %66, 2
  %68 = add nsw i32 %67, 1
  %69 = sext i32 %68 to i64
  %70 = getelementptr inbounds float, ptr %63, i64 %69
  store float %60, ptr %70, align 4, !tbaa !23
  %71 = load ptr, ptr %4, align 8, !tbaa !27
  %72 = getelementptr inbounds nuw %struct.NSVGparser, ptr %71, i32 0, i32 3
  %73 = load i32, ptr %72, align 8, !tbaa !219
  %74 = add nsw i32 %73, 1
  store i32 %74, ptr %72, align 8, !tbaa !219
  br label %75

75:                                               ; preds = %48, %46
  ret void
}

; Function Attrs: nounwind uwtable
define internal void @nsvg__lineTo(ptr noundef %0, float noundef %1, float noundef %2) #0 {
  %4 = alloca ptr, align 8
  %5 = alloca float, align 4
  %6 = alloca float, align 4
  %7 = alloca float, align 4
  %8 = alloca float, align 4
  %9 = alloca float, align 4
  %10 = alloca float, align 4
  store ptr %0, ptr %4, align 8, !tbaa !27
  store float %1, ptr %5, align 4, !tbaa !23
  store float %2, ptr %6, align 4, !tbaa !23
  call void @llvm.lifetime.start.p0(i64 4, ptr %7) #11
  call void @llvm.lifetime.start.p0(i64 4, ptr %8) #11
  call void @llvm.lifetime.start.p0(i64 4, ptr %9) #11
  call void @llvm.lifetime.start.p0(i64 4, ptr %10) #11
  %11 = load ptr, ptr %4, align 8, !tbaa !27
  %12 = getelementptr inbounds nuw %struct.NSVGparser, ptr %11, i32 0, i32 3
  %13 = load i32, ptr %12, align 8, !tbaa !219
  %14 = icmp sgt i32 %13, 0
  br i1 %14, label %15, label %67

15:                                               ; preds = %3
  %16 = load ptr, ptr %4, align 8, !tbaa !27
  %17 = getelementptr inbounds nuw %struct.NSVGparser, ptr %16, i32 0, i32 2
  %18 = load ptr, ptr %17, align 8, !tbaa !88
  %19 = load ptr, ptr %4, align 8, !tbaa !27
  %20 = getelementptr inbounds nuw %struct.NSVGparser, ptr %19, i32 0, i32 3
  %21 = load i32, ptr %20, align 8, !tbaa !219
  %22 = sub nsw i32 %21, 1
  %23 = mul nsw i32 %22, 2
  %24 = add nsw i32 %23, 0
  %25 = sext i32 %24 to i64
  %26 = getelementptr inbounds float, ptr %18, i64 %25
  %27 = load float, ptr %26, align 4, !tbaa !23
  store float %27, ptr %7, align 4, !tbaa !23
  %28 = load ptr, ptr %4, align 8, !tbaa !27
  %29 = getelementptr inbounds nuw %struct.NSVGparser, ptr %28, i32 0, i32 2
  %30 = load ptr, ptr %29, align 8, !tbaa !88
  %31 = load ptr, ptr %4, align 8, !tbaa !27
  %32 = getelementptr inbounds nuw %struct.NSVGparser, ptr %31, i32 0, i32 3
  %33 = load i32, ptr %32, align 8, !tbaa !219
  %34 = sub nsw i32 %33, 1
  %35 = mul nsw i32 %34, 2
  %36 = add nsw i32 %35, 1
  %37 = sext i32 %36 to i64
  %38 = getelementptr inbounds float, ptr %30, i64 %37
  %39 = load float, ptr %38, align 4, !tbaa !23
  store float %39, ptr %8, align 4, !tbaa !23
  %40 = load float, ptr %5, align 4, !tbaa !23
  %41 = load float, ptr %7, align 4, !tbaa !23
  %42 = fsub float %40, %41
  store float %42, ptr %9, align 4, !tbaa !23
  %43 = load float, ptr %6, align 4, !tbaa !23
  %44 = load float, ptr %8, align 4, !tbaa !23
  %45 = fsub float %43, %44
  store float %45, ptr %10, align 4, !tbaa !23
  %46 = load ptr, ptr %4, align 8, !tbaa !27
  %47 = load float, ptr %7, align 4, !tbaa !23
  %48 = load float, ptr %9, align 4, !tbaa !23
  %49 = fdiv float %48, 3.000000e+00
  %50 = fadd float %47, %49
  %51 = load float, ptr %8, align 4, !tbaa !23
  %52 = load float, ptr %10, align 4, !tbaa !23
  %53 = fdiv float %52, 3.000000e+00
  %54 = fadd float %51, %53
  call void @nsvg__addPoint(ptr noundef %46, float noundef %50, float noundef %54)
  %55 = load ptr, ptr %4, align 8, !tbaa !27
  %56 = load float, ptr %5, align 4, !tbaa !23
  %57 = load float, ptr %9, align 4, !tbaa !23
  %58 = fdiv float %57, 3.000000e+00
  %59 = fsub float %56, %58
  %60 = load float, ptr %6, align 4, !tbaa !23
  %61 = load float, ptr %10, align 4, !tbaa !23
  %62 = fdiv float %61, 3.000000e+00
  %63 = fsub float %60, %62
  call void @nsvg__addPoint(ptr noundef %55, float noundef %59, float noundef %63)
  %64 = load ptr, ptr %4, align 8, !tbaa !27
  %65 = load float, ptr %5, align 4, !tbaa !23
  %66 = load float, ptr %6, align 4, !tbaa !23
  call void @nsvg__addPoint(ptr noundef %64, float noundef %65, float noundef %66)
  br label %67

67:                                               ; preds = %15, %3
  call void @llvm.lifetime.end.p0(i64 4, ptr %10) #11
  call void @llvm.lifetime.end.p0(i64 4, ptr %9) #11
  call void @llvm.lifetime.end.p0(i64 4, ptr %8) #11
  call void @llvm.lifetime.end.p0(i64 4, ptr %7) #11
  ret void
}