; Function Attrs: mustprogress nounwind willreturn uwtable
define internal fastcc void @nsvg__lineTo(ptr noundef captures(none) %0, float noundef %1, float noundef %2) unnamed_addr #7 {
  %4 = getelementptr inbounds nuw i8, ptr %0, i64 39952
  %5 = load i32, ptr %4, align 8, !tbaa !84
  %6 = icmp sgt i32 %5, 0
  br i1 %6, label %7, label %nsvg__addPoint.exit41

7:                                                ; preds = %3
  %8 = getelementptr inbounds nuw i8, ptr %0, i64 39944
  %9 = load ptr, ptr %8, align 8, !tbaa !80
  %10 = shl nuw i32 %5, 1
  %11 = add i32 %10, -2
  %12 = zext nneg i32 %11 to i64
  %13 = getelementptr inbounds nuw float, ptr %9, i64 %12
  %14 = load float, ptr %13, align 4, !tbaa !28
  %15 = add i32 %10, -1
  %16 = zext nneg i32 %15 to i64
  %17 = getelementptr inbounds nuw float, ptr %9, i64 %16
  %18 = load float, ptr %17, align 4, !tbaa !28
  %19 = fsub float %1, %14
  %20 = fsub float %2, %18
  %21 = fdiv float %19, 3.000000e+00
  %22 = fadd float %14, %21
  %23 = fdiv float %20, 3.000000e+00
  %24 = fadd float %18, %23
  %25 = getelementptr inbounds nuw i8, ptr %0, i64 39956
  %26 = load i32, ptr %25, align 4, !tbaa !87
  %.not.i = icmp slt i32 %5, %26
  br i1 %.not.i, label %._crit_edge.i, label %27

27:                                               ; preds = %7
  %.not16.i = icmp eq i32 %26, 0
  %28 = shl nsw i32 %26, 1
  %spec.select.i = select i1 %.not16.i, i32 8, i32 %28
  store i32 %spec.select.i, ptr %25, align 4, !tbaa !87
  %29 = shl nsw i32 %spec.select.i, 1
  %30 = sext i32 %29 to i64
  %31 = shl nsw i64 %30, 2
  %32 = tail call ptr @realloc(ptr noundef nonnull %9, i64 noundef %31) #33
  store ptr %32, ptr %8, align 8, !tbaa !80
  %.not17.i = icmp eq ptr %32, null
  %.pre = load i32, ptr %4, align 8, !tbaa !84
  br i1 %.not17.i, label %nsvg__addPoint.exit, label %._crit_edge18.i

._crit_edge18.i:                                  ; preds = %27
  %.pre43 = shl nsw i32 %.pre, 1
  br label %._crit_edge.i

._crit_edge.i:                                    ; preds = %7, %._crit_edge18.i
  %.pre-phi = phi i32 [ %10, %7 ], [ %.pre43, %._crit_edge18.i ]
  %33 = phi i32 [ %5, %7 ], [ %.pre, %._crit_edge18.i ]
  %34 = phi ptr [ %9, %7 ], [ %32, %._crit_edge18.i ]
  %35 = sext i32 %.pre-phi to i64
  %36 = getelementptr inbounds float, ptr %34, i64 %35
  store float %22, ptr %36, align 4, !tbaa !28
  %37 = or disjoint i32 %.pre-phi, 1
  %38 = sext i32 %37 to i64
  %39 = getelementptr inbounds float, ptr %34, i64 %38
  store float %24, ptr %39, align 4, !tbaa !28
  %40 = add nsw i32 %33, 1
  store i32 %40, ptr %4, align 8, !tbaa !84
  br label %nsvg__addPoint.exit

nsvg__addPoint.exit:                              ; preds = %27, %._crit_edge.i
  %.pre.i30 = phi ptr [ null, %27 ], [ %34, %._crit_edge.i ]
  %41 = phi i32 [ %.pre, %27 ], [ %40, %._crit_edge.i ]
  %42 = fsub float %1, %21
  %43 = fsub float %2, %23
  %44 = load i32, ptr %25, align 4, !tbaa !87
  %.not.i22 = icmp slt i32 %41, %44
  br i1 %.not.i22, label %._crit_edge.i28, label %45

45:                                               ; preds = %nsvg__addPoint.exit
  %.not16.i23 = icmp eq i32 %44, 0
  %46 = shl nsw i32 %44, 1
  %spec.select.i24 = select i1 %.not16.i23, i32 8, i32 %46
  store i32 %spec.select.i24, ptr %25, align 4, !tbaa !87
  %47 = shl nsw i32 %spec.select.i24, 1
  %48 = sext i32 %47 to i64
  %49 = shl nsw i64 %48, 2
  %50 = tail call ptr @realloc(ptr noundef %.pre.i30, i64 noundef %49) #33
  store ptr %50, ptr %8, align 8, !tbaa !80
  %.not17.i25 = icmp eq ptr %50, null
  %.pre42 = load i32, ptr %4, align 8, !tbaa !84
  br i1 %.not17.i25, label %nsvg__addPoint.exit31, label %._crit_edge.i28

._crit_edge.i28:                                  ; preds = %45, %nsvg__addPoint.exit
  %51 = phi i32 [ %41, %nsvg__addPoint.exit ], [ %.pre42, %45 ]
  %52 = phi ptr [ %.pre.i30, %nsvg__addPoint.exit ], [ %50, %45 ]
  %53 = shl nsw i32 %51, 1
  %54 = sext i32 %53 to i64
  %55 = getelementptr inbounds float, ptr %52, i64 %54
  store float %42, ptr %55, align 4, !tbaa !28
  %56 = or disjoint i32 %53, 1
  %57 = sext i32 %56 to i64
  %58 = getelementptr inbounds float, ptr %52, i64 %57
  store float %43, ptr %58, align 4, !tbaa !28
  %59 = add nsw i32 %51, 1
  store i32 %59, ptr %4, align 8, !tbaa !84
  br label %nsvg__addPoint.exit31

nsvg__addPoint.exit31:                            ; preds = %45, %._crit_edge.i28
  %.pre.i40 = phi ptr [ null, %45 ], [ %52, %._crit_edge.i28 ]
  %60 = phi i32 [ %.pre42, %45 ], [ %59, %._crit_edge.i28 ]
  %61 = load i32, ptr %25, align 4, !tbaa !87
  %.not.i32 = icmp slt i32 %60, %61
  br i1 %.not.i32, label %._crit_edge.i38, label %62

62:                                               ; preds = %nsvg__addPoint.exit31
  %.not16.i33 = icmp eq i32 %61, 0
  %63 = shl nsw i32 %61, 1
  %spec.select.i34 = select i1 %.not16.i33, i32 8, i32 %63
  store i32 %spec.select.i34, ptr %25, align 4, !tbaa !87
  %64 = shl nsw i32 %spec.select.i34, 1
  %65 = sext i32 %64 to i64
  %66 = shl nsw i64 %65, 2
  %67 = tail call ptr @realloc(ptr noundef %.pre.i40, i64 noundef %66) #33
  store ptr %67, ptr %8, align 8, !tbaa !80
  %.not17.i35 = icmp eq ptr %67, null
  br i1 %.not17.i35, label %nsvg__addPoint.exit41, label %._crit_edge18.i36

._crit_edge18.i36:                                ; preds = %62
  %.pre19.i37 = load i32, ptr %4, align 8, !tbaa !84
  br label %._crit_edge.i38

._crit_edge.i38:                                  ; preds = %nsvg__addPoint.exit31, %._crit_edge18.i36
  %68 = phi i32 [ %.pre19.i37, %._crit_edge18.i36 ], [ %60, %nsvg__addPoint.exit31 ]
  %69 = phi ptr [ %67, %._crit_edge18.i36 ], [ %.pre.i40, %nsvg__addPoint.exit31 ]
  %70 = shl nsw i32 %68, 1
  %71 = sext i32 %70 to i64
  %72 = getelementptr inbounds float, ptr %69, i64 %71
  store float %1, ptr %72, align 4, !tbaa !28
  %73 = or disjoint i32 %70, 1
  %74 = sext i32 %73 to i64
  %75 = getelementptr inbounds float, ptr %69, i64 %74
  store float %2, ptr %75, align 4, !tbaa !28
  %76 = add nsw i32 %68, 1
  store i32 %76, ptr %4, align 8, !tbaa !84
  br label %nsvg__addPoint.exit41

nsvg__addPoint.exit41:                            ; preds = %._crit_edge.i38, %62, %3
  ret void
}